(dp0
S'float'
p1
(lp2
sS'main'
p3
(S'horizontal'
p4
(lp5
(S'vertical'
p6
(lp7
(S'tab'
p8
(lp9
(S'dock'
p10
VDivided Light Curve
p11
(dp12
tp13
a(g10
VSmoothed Light Curve
p14
(dp15
tp16
a(dp17
S'index'
p18
I0
stp19
a(g8
(lp20
(g10
VRaw Counts
p21
(dp22
tp23
a(g10
VSky Brightness
p24
(dp25
tp26
a(g10
VSeeing
p27
(dp28
tp29
a(dp30
g18
I0
stp31
a(g4
(lp32
(g10
VFourier Transform
p33
(dp34
tp35
a(g10
VImage
p36
(dp37
tp38
a(dp39
S'sizes'
p40
(lp41
I534
aI444
astp42
a(dp43
g40
(lp44
I209
aI210
aI418
astp45
a(g6
(lp46
(g10
VObserving Log
p47
(dp48
tp49
a(g10
VProcess Log
p50
(dp51
tp52
a(dp53
g40
(lp54
I422
aI422
astp55
a(dp56
g40
(lp57
I985
aI448
astp58
s.